target datalayout = "e-m:e-p270:32:32-p271:32:32-p272:64:64-i64:64-i128:128-f80:128-n8:16:32:64-S128"
target triple = "x86_64-pc-linux-gnu"

%struct.CRYPTO_REF_COUNT = type { i32 }
%struct.bio_st = type { ptr, ptr, ptr, ptr, ptr, i32, i32, i32, i32, i32, ptr, ptr, ptr, %struct.CRYPTO_REF_COUNT, i64, i64, %struct.crypto_ex_data_st }
%struct.crypto_ex_data_st = type { ptr, ptr }

; Function Attrs: nounwind uwtable
define ptr @BIO_push(ptr noundef %0, ptr noundef %1) #0 {
  %3 = alloca ptr, align 8
  %4 = alloca ptr, align 8
  %5 = alloca ptr, align 8
  %6 = alloca ptr, align 8
  %7 = alloca i32, align 4
  store ptr %0, ptr %4, align 8, !tbaa !10
  store ptr %1, ptr %5, align 8, !tbaa !10
  call void @llvm.lifetime.start.p0(i64 8, ptr %6) #5
  %8 = load ptr, ptr %4, align 8, !tbaa !10
  %9 = icmp eq ptr %8, null
  br i1 %9, label %10, label %12

10:                                               ; preds = %2
  %11 = load ptr, ptr %5, align 8, !tbaa !10
  store ptr %11, ptr %3, align 8
  store i32 1, ptr %7, align 4
  br label %38

12:                                               ; preds = %2
  %13 = load ptr, ptr %4, align 8, !tbaa !10
  store ptr %13, ptr %6, align 8, !tbaa !10
  br label %14

14:                                               ; preds = %19, %12
  %15 = load ptr, ptr %6, align 8, !tbaa !10
  %16 = getelementptr inbounds nuw %struct.bio_st, ptr %15, i32 0, i32 11
  %17 = load ptr, ptr %16, align 8, !tbaa !66
  %18 = icmp ne ptr %17, null
  br i1 %18, label %19, label %23

19:                                               ; preds = %14
  %20 = load ptr, ptr %6, align 8, !tbaa !10
  %21 = getelementptr inbounds nuw %struct.bio_st, ptr %20, i32 0, i32 11
  %22 = load ptr, ptr %21, align 8, !tbaa !66
  store ptr %22, ptr %6, align 8, !tbaa !10
  br label %14, !llvm.loop !67

23:                                               ; preds = %14
  %24 = load ptr, ptr %5, align 8, !tbaa !10
  %25 = load ptr, ptr %6, align 8, !tbaa !10
  %26 = getelementptr inbounds nuw %struct.bio_st, ptr %25, i32 0, i32 11
  store ptr %24, ptr %26, align 8, !tbaa !66
  %27 = load ptr, ptr %5, align 8, !tbaa !10
  %28 = icmp ne ptr %27, null
  br i1 %28, label %29, label %33

29:                                               ; preds = %23
  %30 = load ptr, ptr %6, align 8, !tbaa !10
  %31 = load ptr, ptr %5, align 8, !tbaa !10
  %32 = getelementptr inbounds nuw %struct.bio_st, ptr %31, i32 0, i32 12
  store ptr %30, ptr %32, align 8, !tbaa !68
  br label %33

33:                                               ; preds = %29, %23
  %34 = load ptr, ptr %4, align 8, !tbaa !10
  %35 = load ptr, ptr %6, align 8, !tbaa !10
  %36 = call i64 @BIO_ctrl(ptr noundef %34, i32 noundef 6, i64 noundef 0, ptr noundef %35)
  %37 = load ptr, ptr %4, align 8, !tbaa !10
  store ptr %37, ptr %3, align 8
  store i32 1, ptr %7, align 4
  br label %38

38:                                               ; preds = %33, %10
  call void @llvm.lifetime.end.p0(i64 8, ptr %6) #5
  %39 = load ptr, ptr %3, align 8
  ret ptr %39
}