; Function Attrs: nounwind uwtable
define noundef ptr @BIO_push(ptr noundef %0, ptr noundef %1) local_unnamed_addr #0 {
  %3 = icmp eq ptr %0, null
  br i1 %3, label %12, label %.preheader

.preheader:                                       ; preds = %2, %.preheader
  %.0 = phi ptr [ %5, %.preheader ], [ %0, %2 ]
  %4 = getelementptr inbounds nuw i8, ptr %.0, i64 72
  %5 = load ptr, ptr %4, align 8, !tbaa !56
  %.not = icmp eq ptr %5, null
  br i1 %.not, label %6, label %.preheader, !llvm.loop !57

6:                                                ; preds = %.preheader
  %7 = getelementptr inbounds nuw i8, ptr %.0, i64 72
  store ptr %1, ptr %7, align 8, !tbaa !56
  %.not18 = icmp eq ptr %1, null
  br i1 %.not18, label %10, label %8

8:                                                ; preds = %6
  %9 = getelementptr inbounds nuw i8, ptr %1, i64 80
  store ptr %.0, ptr %9, align 8, !tbaa !58
  br label %10

10:                                               ; preds = %8, %6
  %11 = tail call i64 @BIO_ctrl(ptr noundef nonnull %0, i32 noundef 6, i64 noundef 0, ptr noundef nonnull %.0)
  br label %12

12:                                               ; preds = %2, %10
  %.014 = phi ptr [ %0, %10 ], [ %1, %2 ]
  ret ptr %.014
}